; Function Attrs: nounwind sspstrong uwtable
define dso_local void @tcg_gen_concat_i32_i64(ptr noundef %0, ptr noundef %1, ptr noundef %2) local_unnamed_addr #2 {
  %4 = tail call ptr @tcg_temp_ebb_new_i64() #6
  %5 = tail call align 8 ptr @llvm.threadlocal.address.p0(ptr align 8 @tcg_ctx)
  %6 = load ptr, ptr %5, align 8
  %7 = ptrtoint ptr %4 to i64
  %8 = getelementptr inbounds nuw i8, ptr %6, i64 %7
  %9 = ptrtoint ptr %8 to i64
  %10 = ptrtoint ptr %2 to i64
  %11 = getelementptr inbounds nuw i8, ptr %6, i64 %10
  %12 = ptrtoint ptr %11 to i64
  %13 = tail call ptr @tcg_gen_op2(i32 noundef 100, i32 noundef 1, i64 noundef %9, i64 noundef %12)
  %14 = load ptr, ptr %5, align 8
  %15 = ptrtoint ptr %0 to i64
  %16 = getelementptr inbounds nuw i8, ptr %14, i64 %15
  %17 = ptrtoint ptr %16 to i64
  %18 = ptrtoint ptr %1 to i64
  %19 = getelementptr inbounds nuw i8, ptr %14, i64 %18
  %20 = ptrtoint ptr %19 to i64
  %21 = tail call ptr @tcg_gen_op2(i32 noundef 100, i32 noundef 1, i64 noundef %17, i64 noundef %20)
  %22 = tail call ptr @tcg_constant_i64(i64 noundef 32) #6
  %23 = load ptr, ptr %5, align 8
  %24 = getelementptr inbounds nuw i8, ptr %23, i64 %7
  %25 = ptrtoint ptr %24 to i64
  %26 = ptrtoint ptr %22 to i64
  %27 = getelementptr inbounds nuw i8, ptr %23, i64 %26
  %28 = ptrtoint ptr %27 to i64
  %29 = tail call ptr @tcg_gen_op3(i32 noundef 90, i32 noundef 1, i64 noundef %25, i64 noundef %25, i64 noundef %28)
  %30 = load ptr, ptr %5, align 8
  %31 = getelementptr inbounds nuw i8, ptr %30, i64 %15
  %32 = ptrtoint ptr %31 to i64
  %33 = getelementptr inbounds nuw i8, ptr %30, i64 %7
  %34 = ptrtoint ptr %33 to i64
  %35 = tail call ptr @tcg_gen_op3(i32 noundef 88, i32 noundef 1, i64 noundef %32, i64 noundef %32, i64 noundef %34)
  tail call void @tcg_temp_free_i64(ptr noundef %4) #6
  ret void
}